; ModuleID = '62/3217.c'
source_filename = "62/3217.c"
target datalayout = "e-m:e-p270:32:32-p271:32:32-p272:64:64-i64:64-f80:128-n8:16:32:64-S128"
target triple = "x86_64-pc-linux-gnu"

; Function Attrs: noinline nounwind uwtable
define dso_local i32 @main() #0 {
  %1 = alloca i32, align 4
  %2 = alloca [266 x i8], align 16
  %3 = alloca i8*, align 8
  %4 = alloca i8*, align 8
  %5 = alloca i32, align 4
  %6 = alloca i32, align 4
  %7 = alloca i32, align 4
  %8 = alloca i32, align 4
  %9 = alloca i32, align 4
  store i32 0, i32* %1, align 4
  store i32 0, i32* %9, align 4
  %10 = getelementptr inbounds [266 x i8], [266 x i8]* %2, i64 0, i64 0
  %11 = call i32 (i8*, ...) bitcast (i32 (...)* @gets to i32 (i8*, ...)*)(i8* %10)
  %12 = getelementptr inbounds [266 x i8], [266 x i8]* %2, i64 0, i64 0
  %13 = call i64 @strlen(i8* %12) #3
  %14 = trunc i64 %13 to i32
  store i32 %14, i32* %8, align 4
  store i32 0, i32* %6, align 4
  br label %15

15:                                               ; preds = %58, %0
  %16 = load i32, i32* %6, align 4
  %17 = load i32, i32* %8, align 4
  %18 = icmp slt i32 %16, %17
  br i1 %18, label %19, label %61

19:                                               ; preds = %15
  %20 = getelementptr inbounds [266 x i8], [266 x i8]* %2, i64 0, i64 0
  store i8* %20, i8** %3, align 8
  br label %21

21:                                               ; preds = %54, %19
  %22 = load i8*, i8** %3, align 8
  %23 = load i8, i8* %22, align 1
  %24 = sext i8 %23 to i32
  %25 = icmp ne i32 %24, 0
  br i1 %25, label %26, label %57

26:                                               ; preds = %21
  %27 = load i8*, i8** %3, align 8
  %28 = getelementptr inbounds i8, i8* %27, i64 -1
  %29 = load i8, i8* %28, align 1
  %30 = sext i8 %29 to i32
  %31 = icmp eq i32 %30, 32
  br i1 %31, label %32, label %53

32:                                               ; preds = %26
  %33 = load i8*, i8** %3, align 8
  %34 = load i8, i8* %33, align 1
  %35 = sext i8 %34 to i32
  %36 = icmp eq i32 %35, 32
  br i1 %36, label %37, label %53

37:                                               ; preds = %32
  %38 = load i8*, i8** %3, align 8
  store i8* %38, i8** %3, align 8
  br label %39

39:                                               ; preds = %49, %37
  %40 = load i8*, i8** %3, align 8
  %41 = load i8, i8* %40, align 1
  %42 = sext i8 %41 to i32
  %43 = icmp ne i32 %42, 0
  br i1 %43, label %44, label %52

44:                                               ; preds = %39
  %45 = load i8*, i8** %3, align 8
  %46 = getelementptr inbounds i8, i8* %45, i64 1
  %47 = load i8, i8* %46, align 1
  %48 = load i8*, i8** %3, align 8
  store i8 %47, i8* %48, align 1
  br label %49

49:                                               ; preds = %44
  %50 = load i8*, i8** %3, align 8
  %51 = getelementptr inbounds i8, i8* %50, i32 1
  store i8* %51, i8** %3, align 8
  br label %39

52:                                               ; preds = %39
  br label %53

53:                                               ; preds = %52, %32, %26
  br label %54

54:                                               ; preds = %53
  %55 = load i8*, i8** %3, align 8
  %56 = getelementptr inbounds i8, i8* %55, i32 1
  store i8* %56, i8** %3, align 8
  br label %21

57:                                               ; preds = %21
  br label %58

58:                                               ; preds = %57
  %59 = load i32, i32* %6, align 4
  %60 = add nsw i32 %59, 1
  store i32 %60, i32* %6, align 4
  br label %15

61:                                               ; preds = %15
  %62 = getelementptr inbounds [266 x i8], [266 x i8]* %2, i64 0, i64 0
  %63 = call i32 @puts(i8* %62)
  ret i32 0
}

declare dso_local i32 @gets(...) #1

; Function Attrs: nounwind readonly
declare dso_local i64 @strlen(i8*) #2

declare dso_local i32 @puts(i8*) #1


!llvm.module.flags = !{!0}
!llvm.ident = !{!1}

!0 = !{i32 1, !"wchar_size", i32 4}
!1 = !{!"clang version 10.0.0-4ubuntu1 "}
