; ModuleID = 'source-C-CXX/61/3217.c'
source_filename = "source-C-CXX/61/3217.c"
target datalayout = "e-m:e-p270:32:32-p271:32:32-p272:64:64-i64:64-f80:128-n8:16:32:64-S128"
target triple = "x86_64-pc-linux-gnu"

; Function Attrs: nounwind sspstrong uwtable
define dso_local i32 @main() local_unnamed_addr #0 {
  %1 = alloca [266 x i8], align 16
  %2 = getelementptr inbounds [266 x i8], [266 x i8]* %1, i64 0, i64 0
  call void @llvm.lifetime.start.p0i8(i64 266, i8* nonnull %2) #5
  %3 = call i32 (i8*, ...) bitcast (i32 (...)* @gets to i32 (i8*, ...)*)(i8* nonnull %2) #5
  %4 = call i64 @strlen(i8* noundef nonnull %2) #6
  %5 = trunc i64 %4 to i32
  %6 = icmp slt i32 %5, 1
  %7 = load i8, i8* %2, align 16
  %8 = icmp eq i8 %7, 0
  %9 = select i1 %6, i1 true, i1 %8
  br i1 %9, label %37, label %10

10:                                               ; preds = %0, %35
  %11 = phi i8 [ %36, %35 ], [ %7, %0 ]
  %12 = phi i32 [ %33, %35 ], [ 0, %0 ]
  %13 = icmp eq i8 %11, 0
  br i1 %13, label %32, label %14

14:                                               ; preds = %10, %27
  %15 = phi i8 [ %30, %27 ], [ %11, %10 ]
  %16 = phi i8* [ %29, %27 ], [ %2, %10 ]
  %17 = getelementptr inbounds i8, i8* %16, i64 -1
  %18 = load i8, i8* %17, align 1, !tbaa !5
  %19 = icmp eq i8 %18, 32
  %20 = icmp eq i8 %15, 32
  %21 = select i1 %19, i1 %20, i1 false
  br i1 %21, label %22, label %27

22:                                               ; preds = %14, %22
  %23 = phi i8* [ %24, %22 ], [ %16, %14 ]
  %24 = getelementptr inbounds i8, i8* %23, i64 1
  %25 = load i8, i8* %24, align 1, !tbaa !5
  store i8 %25, i8* %23, align 1, !tbaa !5
  %26 = icmp eq i8 %25, 0
  br i1 %26, label %27, label %22, !llvm.loop !8

27:                                               ; preds = %22, %14
  %28 = phi i8* [ %16, %14 ], [ %24, %22 ]
  %29 = getelementptr inbounds i8, i8* %28, i64 1
  %30 = load i8, i8* %29, align 1, !tbaa !5
  %31 = icmp eq i8 %30, 0
  br i1 %31, label %32, label %14, !llvm.loop !10

32:                                               ; preds = %27, %10
  %33 = add nuw nsw i32 %12, 1
  %34 = icmp eq i32 %33, %5
  br i1 %34, label %37, label %35, !llvm.loop !11

35:                                               ; preds = %32
  %36 = load i8, i8* %2, align 16, !tbaa !5
  br label %10

37:                                               ; preds = %32, %0
  %38 = call i32 @puts(i8* nonnull %2)
  call void @llvm.lifetime.end.p0i8(i64 266, i8* nonnull %2) #5
  ret i32 0
}

; Function Attrs: argmemonly mustprogress nofree nosync nounwind willreturn
declare void @llvm.lifetime.start.p0i8(i64 immarg, i8* nocapture) #1

declare i32 @gets(...) local_unnamed_addr #2

; Function Attrs: argmemonly mustprogress nofree nounwind readonly willreturn
declare i64 @strlen(i8* nocapture) local_unnamed_addr #3

; Function Attrs: nofree nounwind
declare noundef i32 @puts(i8* nocapture noundef readonly) local_unnamed_addr #4

; Function Attrs: argmemonly mustprogress nofree nosync nounwind willreturn
declare void @llvm.lifetime.end.p0i8(i64 immarg, i8* nocapture) #1


!llvm.module.flags = !{!0, !1, !2, !3}
!llvm.ident = !{!4}

!0 = !{i32 1, !"wchar_size", i32 4}
!1 = !{i32 7, !"PIC Level", i32 2}
!2 = !{i32 7, !"PIE Level", i32 2}
!3 = !{i32 7, !"uwtable", i32 1}
!4 = !{!"clang version 13.0.0"}
!5 = !{!6, !6, i64 0}
!6 = !{!"omnipotent char", !7, i64 0}
!7 = !{!"Simple C/C++ TBAA"}
!8 = distinct !{!8, !9}
!9 = !{!"llvm.loop.mustprogress"}
!10 = distinct !{!10, !9}
!11 = distinct !{!11, !9, !12}
!12 = !{!"llvm.loop.unswitch.partial.disable"}
